target datalayout = "e-m:e-p270:32:32-p271:32:32-p272:64:64-i64:64-i128:128-f80:128-n8:16:32:64-S128"
target triple = "x86_64-unknown-linux-gnu"

%"class.std::shared_ptr" = type { %"class.std::__shared_ptr" }
%"class.std::__shared_ptr" = type { ptr, %"class.std::__shared_count" }
%"class.std::__shared_count" = type { ptr }
%"class.std::__weak_count" = type { ptr }
%"struct.std::atomic" = type { %"struct.std::__atomic_base" }
%"struct.std::__atomic_base" = type { i64 }
%"class.absl::lts_20230802::Mutex" = type { %"struct.std::atomic" }
%"struct.std::atomic.0" = type { %"struct.std::__atomic_base.1" }
%"struct.std::__atomic_base.1" = type { i64 }
%"class.grpc_core::PeriodicUpdate" = type { %"struct.std::atomic", %"class.grpc_core::Duration", %"class.grpc_core::Timestamp", i64 }
%"class.grpc_core::Duration" = type { i64 }
%"class.grpc_core::Timestamp" = type { i64 }
%"class.grpc_core::GrpcMemoryAllocatorImpl" = type { %"class.grpc_event_engine::experimental::internal::MemoryAllocatorImpl", %"class.std::shared_ptr", %"struct.std::atomic.0", %"struct.std::atomic.0", %"struct.std::atomic.0", %"class.grpc_core::PeriodicUpdate", %"class.absl::lts_20230802::Mutex", i8, [3 x %"class.std::unique_ptr.37"] }
%"class.grpc_event_engine::experimental::internal::MemoryAllocatorImpl" = type { ptr, %"class.std::enable_shared_from_this.34" }
%"class.std::enable_shared_from_this.34" = type { %"class.std::weak_ptr.35" }
%"class.std::weak_ptr.35" = type { %"class.std::__weak_ptr.36" }
%"class.std::__weak_ptr.36" = type { ptr, %"class.std::__weak_count" }
%"class.std::unique_ptr.37" = type { %"struct.std::__uniq_ptr_data.38" }
%"struct.std::__uniq_ptr_data.38" = type { %"class.std::__uniq_ptr_impl.39" }
%"class.std::__uniq_ptr_impl.39" = type { %"class.std::tuple.40" }
%"class.std::tuple.40" = type { %"struct.std::_Tuple_impl.41" }
%"struct.std::_Tuple_impl.41" = type { %"struct.std::_Head_base.42" }
%"struct.std::_Head_base.42" = type { ptr }

; Function Attrs: mustprogress nounwind uwtable
define linkonce_odr noundef i32 @_ZStanSt12memory_orderSt23__memory_order_modifier(i32 noundef %__m, i32 noundef %__mod) #4 comdat {
entry:
  %__m.addr = alloca i32, align 4
  %__mod.addr = alloca i32, align 4
  store i32 %__m, ptr %__m.addr, align 4
  store i32 %__mod, ptr %__mod.addr, align 4
  %0 = load i32, ptr %__m.addr, align 4
  %1 = load i32, ptr %__mod.addr, align 4
  %and = and i32 %0, %1
  ret i32 %and
}

; Function Attrs: mustprogress nounwind uwtable
define linkonce_odr noundef i64 @_ZNK9grpc_core23GrpcMemoryAllocatorImpl12GetFreeBytesEv(ptr noundef nonnull align 8 dereferenceable(136) %this) #4 comdat align 2 {
entry:
  %this.addr.i = alloca ptr, align 8
  %__m.addr.i = alloca i32, align 4
  %__b.i = alloca i32, align 4
  %atomic-temp.i = alloca i64, align 8
  %this.addr = alloca ptr, align 8
  store ptr %this, ptr %this.addr, align 8
  %this1 = load ptr, ptr %this.addr, align 8
  %free_bytes_ = getelementptr inbounds %"class.grpc_core::GrpcMemoryAllocatorImpl", ptr %this1, i32 0, i32 2
  store ptr %free_bytes_, ptr %this.addr.i, align 8
  store i32 0, ptr %__m.addr.i, align 4
  %this1.i = load ptr, ptr %this.addr.i, align 8
  %0 = load i32, ptr %__m.addr.i, align 4
  %call.i = call noundef i32 @_ZStanSt12memory_orderSt23__memory_order_modifier(i32 noundef %0, i32 noundef 65535)
  store i32 %call.i, ptr %__b.i, align 4
  %1 = load i32, ptr %__m.addr.i, align 4
  switch i32 %1, label %monotonic.i [
    i32 1, label %acquire.i
    i32 2, label %acquire.i
    i32 5, label %seqcst.i
  ]

monotonic.i:                                      ; preds = %entry
  %2 = load atomic i64, ptr %this1.i monotonic, align 8
  store i64 %2, ptr %atomic-temp.i, align 8
  br label %_ZNKSt13__atomic_baseImE4loadESt12memory_order.exit

acquire.i:                                        ; preds = %entry, %entry
  %3 = load atomic i64, ptr %this1.i acquire, align 8
  store i64 %3, ptr %atomic-temp.i, align 8
  br label %_ZNKSt13__atomic_baseImE4loadESt12memory_order.exit

seqcst.i:                                         ; preds = %entry
  %4 = load atomic i64, ptr %this1.i seq_cst, align 8
  store i64 %4, ptr %atomic-temp.i, align 8
  br label %_ZNKSt13__atomic_baseImE4loadESt12memory_order.exit

_ZNKSt13__atomic_baseImE4loadESt12memory_order.exit: ; preds = %seqcst.i, %acquire.i, %monotonic.i
  %5 = load i64, ptr %atomic-temp.i, align 8
  ret i64 %5
}

; Function Attrs: mustprogress uwtable
define void @_ZN9grpc_core16BasicMemoryQuota18MaybeMoveAllocatorEPNS_23GrpcMemoryAllocatorImplEmm(ptr noundef nonnull align 8 dereferenceable(1488) %this, ptr noundef %allocator, i64 noundef %old_free_bytes, i64 noundef %new_free_bytes) #5 align 2 {
entry:
  %this.addr = alloca ptr, align 8
  %allocator.addr = alloca ptr, align 8
  %old_free_bytes.addr = alloca i64, align 8
  %new_free_bytes.addr = alloca i64, align 8
  store ptr %this, ptr %this.addr, align 8
  store ptr %allocator, ptr %allocator.addr, align 8
  store i64 %old_free_bytes, ptr %old_free_bytes.addr, align 8
  store i64 %new_free_bytes, ptr %new_free_bytes.addr, align 8
  %this1 = load ptr, ptr %this.addr, align 8
  br label %while.body

while.body:                                       ; preds = %if.end11, %entry
  %0 = load i64, ptr %new_free_bytes.addr, align 8
  %cmp = icmp ult i64 %0, 104857
  br i1 %cmp, label %if.then, label %if.else

if.then:                                          ; preds = %while.body
  %1 = load i64, ptr %old_free_bytes.addr, align 8
  %cmp2 = icmp ult i64 %1, 104857
  br i1 %cmp2, label %if.then3, label %if.end

if.then3:                                         ; preds = %if.then
  br label %return

if.end:                                           ; preds = %if.then
  %2 = load ptr, ptr %allocator.addr, align 8
  call void @_ZN9grpc_core16BasicMemoryQuota28MaybeMoveAllocatorBigToSmallEPNS_23GrpcMemoryAllocatorImplE(ptr noundef nonnull align 8 dereferenceable(1488) %this1, ptr noundef %2)
  br label %if.end11

if.else:                                          ; preds = %while.body
  %3 = load i64, ptr %new_free_bytes.addr, align 8
  %cmp4 = icmp ugt i64 %3, 524288
  br i1 %cmp4, label %if.then5, label %if.else9

if.then5:                                         ; preds = %if.else
  %4 = load i64, ptr %old_free_bytes.addr, align 8
  %cmp6 = icmp ugt i64 %4, 524288
  br i1 %cmp6, label %if.then7, label %if.end8

if.then7:                                         ; preds = %if.then5
  br label %return

if.end8:                                          ; preds = %if.then5
  %5 = load ptr, ptr %allocator.addr, align 8
  call void @_ZN9grpc_core16BasicMemoryQuota28MaybeMoveAllocatorSmallToBigEPNS_23GrpcMemoryAllocatorImplE(ptr noundef nonnull align 8 dereferenceable(1488) %this1, ptr noundef %5)
  br label %if.end10

if.else9:                                         ; preds = %if.else
  br label %return

if.end10:                                         ; preds = %if.end8
  br label %if.end11

if.end11:                                         ; preds = %if.end10, %if.end
  %6 = load i64, ptr %new_free_bytes.addr, align 8
  store i64 %6, ptr %old_free_bytes.addr, align 8
  %7 = load ptr, ptr %allocator.addr, align 8
  %call = call noundef i64 @_ZNK9grpc_core23GrpcMemoryAllocatorImpl12GetFreeBytesEv(ptr noundef nonnull align 8 dereferenceable(136) %7)
  store i64 %call, ptr %new_free_bytes.addr, align 8
  br label %while.body, !llvm.loop !9

return:                                           ; preds = %if.else9, %if.then7, %if.then3
  ret void
}