; Function Attrs: mustprogress uwtable
define void @_ZN9grpc_core16BasicMemoryQuota18MaybeMoveAllocatorEPNS_23GrpcMemoryAllocatorImplEmm(ptr noundef nonnull align 8 dereferenceable(1488) %this, ptr noundef %allocator, i64 noundef %old_free_bytes, i64 noundef %new_free_bytes) local_unnamed_addr #4 align 2 {
entry:
  %free_bytes_.i = getelementptr inbounds i8, ptr %allocator, i64 40
  br label %while.body

while.body:                                       ; preds = %if.end11, %entry
  %old_free_bytes.addr.0 = phi i64 [ %old_free_bytes, %entry ], [ %new_free_bytes.addr.0, %if.end11 ]
  %new_free_bytes.addr.0 = phi i64 [ %new_free_bytes, %entry ], [ %0, %if.end11 ]
  %cmp = icmp ult i64 %new_free_bytes.addr.0, 104857
  br i1 %cmp, label %if.then, label %if.else

if.then:                                          ; preds = %while.body
  %cmp2 = icmp ult i64 %old_free_bytes.addr.0, 104857
  br i1 %cmp2, label %return, label %if.end

if.end:                                           ; preds = %if.then
  tail call void @_ZN9grpc_core16BasicMemoryQuota28MaybeMoveAllocatorBigToSmallEPNS_23GrpcMemoryAllocatorImplE(ptr noundef nonnull align 8 dereferenceable(1488) %this, ptr noundef %allocator)
  br label %if.end11

if.else:                                          ; preds = %while.body
  %cmp4 = icmp ult i64 %new_free_bytes.addr.0, 524289
  %cmp6 = icmp ugt i64 %old_free_bytes.addr.0, 524288
  %or.cond = or i1 %cmp6, %cmp4
  br i1 %or.cond, label %return, label %if.end8

if.end8:                                          ; preds = %if.else
  tail call void @_ZN9grpc_core16BasicMemoryQuota28MaybeMoveAllocatorSmallToBigEPNS_23GrpcMemoryAllocatorImplE(ptr noundef nonnull align 8 dereferenceable(1488) %this, ptr noundef %allocator)
  br label %if.end11

if.end11:                                         ; preds = %if.end8, %if.end
  %0 = load atomic i64, ptr %free_bytes_.i monotonic, align 8
  br label %while.body, !llvm.loop !14

return:                                           ; preds = %if.else, %if.then
  ret void
}